; Function Attrs: mustprogress uwtable
define void @_ZN5Ipopt16FilterLSAcceptor18InitThisLineSearchEb(ptr noundef nonnull align 8 dereferenceable(304) %0, i1 noundef zeroext %1) unnamed_addr #3 align 2 {
  br i1 %1, label %19, label %3

3:                                                ; preds = %2
  %4 = getelementptr inbounds i8, ptr %0, i64 40
  %5 = load ptr, ptr %4, align 8
  %6 = load ptr, ptr %5, align 8
  %7 = getelementptr inbounds i8, ptr %6, i64 64
  %8 = load ptr, ptr %7, align 8
  %9 = tail call noundef double %8(ptr noundef nonnull align 8 dereferenceable(2185) %5)
  %10 = getelementptr inbounds i8, ptr %0, i64 200
  store double %9, ptr %10, align 8
  %11 = load ptr, ptr %4, align 8
  %12 = load ptr, ptr %11, align 8
  %13 = getelementptr inbounds i8, ptr %12, i64 48
  %14 = load ptr, ptr %13, align 8
  %15 = tail call noundef double %14(ptr noundef nonnull align 8 dereferenceable(2185) %11)
  %16 = getelementptr inbounds i8, ptr %0, i64 208
  store double %15, ptr %16, align 8
  %17 = load ptr, ptr %4, align 8
  %18 = tail call noundef double @_ZN5Ipopt25IpoptCalculatedQuantities19curr_gradBarrTDeltaEv(ptr noundef nonnull align 8 dereferenceable(2185) %17)
  br label %25

19:                                               ; preds = %2
  %20 = getelementptr inbounds i8, ptr %0, i64 224
  %21 = getelementptr inbounds i8, ptr %0, i64 200
  %22 = load <2 x double>, ptr %20, align 8
  store <2 x double> %22, ptr %21, align 8
  %23 = getelementptr inbounds i8, ptr %0, i64 240
  %24 = load double, ptr %23, align 8
  br label %25

25:                                               ; preds = %19, %3
  %.sink = phi double [ %24, %19 ], [ %18, %3 ]
  %26 = getelementptr inbounds i8, ptr %0, i64 216
  store double %.sink, ptr %26, align 8
  %27 = getelementptr inbounds i8, ptr %0, i64 248
  %28 = getelementptr inbounds i8, ptr %0, i64 16
  %29 = load ptr, ptr %28, align 8
  tail call void @_ZN5Ipopt6Filter5PrintERKNS_10JournalistE(ptr noundef nonnull align 8 dereferenceable(32) %27, ptr noundef nonnull align 8 dereferenceable(40) %29)
  ret void
}